; Function Attrs: nounwind uwtable
define ptr @l___private_Lean_Meta_LazyDiscrTree_0__Lean_Meta_LazyDiscrTree_Trie_pushPending___rarg(ptr noundef %0, ptr noundef %1) #1 {
  %.val = load i32, ptr %0, align 4, !tbaa !8
  %3 = icmp eq i32 %.val, 1
  br i1 %3, label %4, label %8

4:                                                ; preds = %2
  %5 = getelementptr inbounds nuw i8, ptr %0, i64 32
  %6 = load ptr, ptr %5, align 8, !tbaa !4
  %7 = tail call ptr @lean_array_push(ptr noundef %6, ptr noundef %1) #6
  store ptr %7, ptr %5, align 8, !tbaa !4
  br label %67

8:                                                ; preds = %2
  %9 = getelementptr inbounds nuw i8, ptr %0, i64 8
  %10 = load ptr, ptr %9, align 8, !tbaa !4
  %11 = getelementptr inbounds nuw i8, ptr %0, i64 16
  %12 = load ptr, ptr %11, align 8, !tbaa !4
  %13 = getelementptr inbounds nuw i8, ptr %0, i64 24
  %14 = load ptr, ptr %13, align 8, !tbaa !4
  %15 = getelementptr inbounds nuw i8, ptr %0, i64 32
  %16 = load ptr, ptr %15, align 8, !tbaa !4
  %17 = ptrtoint ptr %16 to i64
  %18 = and i64 %17, 1
  %.not = icmp eq i64 %18, 0
  br i1 %.not, label %19, label %lean_inc.exit30

19:                                               ; preds = %8
  %.val.i = load i32, ptr %16, align 4, !tbaa !8
  %20 = icmp sgt i32 %.val.i, 0
  br i1 %20, label %21, label %23, !prof !11

21:                                               ; preds = %19
  %22 = add nuw i32 %.val.i, 1
  store i32 %22, ptr %16, align 4, !tbaa !8
  br label %lean_inc.exit30

23:                                               ; preds = %19
  %.not.i31 = icmp eq i32 %.val.i, 0
  br i1 %.not.i31, label %lean_inc.exit30, label %24

24:                                               ; preds = %23
  tail call void @lean_inc_ref_cold(ptr noundef nonnull %16) #6
  br label %lean_inc.exit30

lean_inc.exit30:                                  ; preds = %24, %23, %21, %8
  %25 = ptrtoint ptr %14 to i64
  %26 = and i64 %25, 1
  %.not41 = icmp eq i64 %26, 0
  br i1 %.not41, label %27, label %lean_inc.exit29

27:                                               ; preds = %lean_inc.exit30
  %.val.i32 = load i32, ptr %14, align 4, !tbaa !8
  %28 = icmp sgt i32 %.val.i32, 0
  br i1 %28, label %29, label %31, !prof !11

29:                                               ; preds = %27
  %30 = add nuw i32 %.val.i32, 1
  store i32 %30, ptr %14, align 4, !tbaa !8
  br label %lean_inc.exit29

31:                                               ; preds = %27
  %.not.i33 = icmp eq i32 %.val.i32, 0
  br i1 %.not.i33, label %lean_inc.exit29, label %32

32:                                               ; preds = %31
  tail call void @lean_inc_ref_cold(ptr noundef nonnull %14) #6
  br label %lean_inc.exit29

lean_inc.exit29:                                  ; preds = %32, %31, %29, %lean_inc.exit30
  %33 = ptrtoint ptr %12 to i64
  %34 = and i64 %33, 1
  %.not42 = icmp eq i64 %34, 0
  br i1 %.not42, label %35, label %lean_inc.exit28

35:                                               ; preds = %lean_inc.exit29
  %.val.i35 = load i32, ptr %12, align 4, !tbaa !8
  %36 = icmp sgt i32 %.val.i35, 0
  br i1 %36, label %37, label %39, !prof !11

37:                                               ; preds = %35
  %38 = add nuw i32 %.val.i35, 1
  store i32 %38, ptr %12, align 4, !tbaa !8
  br label %lean_inc.exit28

39:                                               ; preds = %35
  %.not.i36 = icmp eq i32 %.val.i35, 0
  br i1 %.not.i36, label %lean_inc.exit28, label %40

40:                                               ; preds = %39
  tail call void @lean_inc_ref_cold(ptr noundef nonnull %12) #6
  br label %lean_inc.exit28

lean_inc.exit28:                                  ; preds = %40, %39, %37, %lean_inc.exit29
  %41 = ptrtoint ptr %10 to i64
  %42 = and i64 %41, 1
  %.not43 = icmp eq i64 %42, 0
  br i1 %.not43, label %43, label %lean_inc.exit

43:                                               ; preds = %lean_inc.exit28
  %.val.i38 = load i32, ptr %10, align 4, !tbaa !8
  %44 = icmp sgt i32 %.val.i38, 0
  br i1 %44, label %45, label %47, !prof !11

45:                                               ; preds = %43
  %46 = add nuw i32 %.val.i38, 1
  store i32 %46, ptr %10, align 4, !tbaa !8
  br label %lean_inc.exit

47:                                               ; preds = %43
  %.not.i39 = icmp eq i32 %.val.i38, 0
  br i1 %.not.i39, label %lean_inc.exit, label %48

48:                                               ; preds = %47
  tail call void @lean_inc_ref_cold(ptr noundef nonnull %10) #6
  br label %lean_inc.exit

lean_inc.exit:                                    ; preds = %48, %47, %45, %lean_inc.exit28
  %49 = ptrtoint ptr %0 to i64
  %50 = and i64 %49, 1
  %.not44 = icmp eq i64 %50, 0
  br i1 %.not44, label %51, label %lean_dec.exit

51:                                               ; preds = %lean_inc.exit
  %52 = load i32, ptr %0, align 4, !tbaa !8
  %53 = icmp sgt i32 %52, 1
  br i1 %53, label %54, label %56, !prof !11

54:                                               ; preds = %51
  %55 = add nsw i32 %52, -1
  store i32 %55, ptr %0, align 4, !tbaa !8
  br label %lean_dec.exit

56:                                               ; preds = %51
  %.not.i = icmp eq i32 %52, 0
  br i1 %.not.i, label %lean_dec.exit, label %57

57:                                               ; preds = %56
  tail call void @lean_dec_ref_cold(ptr noundef nonnull %0) #6
  br label %lean_dec.exit

lean_dec.exit:                                    ; preds = %57, %56, %54, %lean_inc.exit
  %58 = tail call ptr @lean_array_push(ptr noundef %16, ptr noundef %1) #6
  tail call void @lean_inc_heartbeat() #6
  %59 = tail call noalias ptr @mi_malloc_small(i64 noundef 40) #6
  %60 = icmp eq ptr %59, null
  br i1 %60, label %61, label %lean_alloc_ctor.exit

61:                                               ; preds = %lean_dec.exit
  tail call void @lean_internal_panic_out_of_memory() #7
  unreachable

lean_alloc_ctor.exit:                             ; preds = %lean_dec.exit
  %62 = getelementptr inbounds nuw i8, ptr %59, i64 4
  store i32 1, ptr %59, align 4, !tbaa !8
  store i32 262184, ptr %62, align 4
  %63 = getelementptr inbounds nuw i8, ptr %59, i64 8
  store ptr %10, ptr %63, align 8, !tbaa !4
  %64 = getelementptr inbounds nuw i8, ptr %59, i64 16
  store ptr %12, ptr %64, align 8, !tbaa !4
  %65 = getelementptr inbounds nuw i8, ptr %59, i64 24
  store ptr %14, ptr %65, align 8, !tbaa !4
  %66 = getelementptr inbounds nuw i8, ptr %59, i64 32
  store ptr %58, ptr %66, align 8, !tbaa !4
  br label %67

67:                                               ; preds = %lean_alloc_ctor.exit, %4
  %.0 = phi ptr [ %0, %4 ], [ %59, %lean_alloc_ctor.exit ]
  ret ptr %.0
}